target datalayout = "e-m:e-p270:32:32-p271:32:32-p272:64:64-i64:64-i128:128-f80:128-n8:16:32:64-S128"
target triple = "x86_64-unknown-linux-gnu"

%"struct.node::AssertionInfo" = type { ptr, ptr, ptr }
%"class.v8::IndirectHandleBase" = type { ptr }
%"class.v8::LocalBase.33" = type { %"class.v8::IndirectHandleBase" }
%"class.v8::Local.32" = type { %"class.v8::LocalBase.33" }
%"class.v8::LocalBase.327" = type { %"class.v8::IndirectHandleBase" }
%"class.v8::Local.326" = type { %"class.v8::LocalBase.327" }
%"class.v8::Local.365" = type { %"class.v8::LocalBase.366" }
%"class.v8::LocalBase.366" = type { %"class.v8::IndirectHandleBase" }
%"class.v8::FunctionCallbackInfo" = type <{ ptr, ptr, i32, [4 x i8] }>

@_ZZN4node11StatWatcher3NewERKN2v820FunctionCallbackInfoINS1_5ValueEEEE4args = internal constant %"struct.node::AssertionInfo" { ptr @.str.5, ptr @.str.6, ptr @.str.7 }, align 8
@_ZN4node11StatWatcherC1EPNS_2fs11BindingDataEN2v85LocalINS4_6ObjectEEEb = dso_local unnamed_addr alias void (ptr, ptr, ptr, i1), ptr @_ZN4node11StatWatcherC2EPNS_2fs11BindingDataEN2v85LocalINS4_6ObjectEEEb

; Function Attrs: mustprogress nounwind uwtable
define dso_local void @_ZN4node11StatWatcher3NewERKN2v820FunctionCallbackInfoINS1_5ValueEEE(ptr noundef nonnull align 8 dereferenceable(20) %args) #4 align 2 {
entry:
  %this.addr.i.i.i113 = alloca ptr, align 8
  %location.addr.i.i.i114 = alloca ptr, align 8
  %this.addr.i.i115 = alloca ptr, align 8
  %location.addr.i.i116 = alloca ptr, align 8
  %retval.i117 = alloca %"class.v8::LocalBase.33", align 8
  %slot.addr.i118 = alloca ptr, align 8
  %this.addr.i.i107 = alloca ptr, align 8
  %other.addr.i.i108 = alloca ptr, align 8
  %retval.i109 = alloca %"class.v8::Local.32", align 8
  %slot.addr.i110 = alloca ptr, align 8
  %ref.tmp.i111 = alloca %"class.v8::LocalBase.33", align 8
  %value.addr.i105 = alloca i64, align 8
  %shift_bits.i = alloca i32, align 4
  %heap_object_ptr.addr.i.i99 = alloca i64, align 8
  %offset.addr.i.i100 = alloca i32, align 4
  %addr.i.i101 = alloca i64, align 8
  %heap_object_ptr.addr.i = alloca i64, align 8
  %offset.addr.i = alloca i32, align 4
  %value.addr.i97 = alloca i64, align 8
  %obj.addr.i = alloca i64, align 8
  %value.addr.i95 = alloca i64, align 8
  %value.addr.i = alloca ptr, align 8
  %heap_object_ptr.addr.i12.i = alloca i64, align 8
  %offset.addr.i13.i = alloca i32, align 4
  %addr.i14.i = alloca i64, align 8
  %heap_object_ptr.addr.i9.i = alloca i64, align 8
  %offset.addr.i10.i = alloca i32, align 4
  %addr.i.i = alloca i64, align 8
  %heap_object_ptr.addr.i.i = alloca i64, align 8
  %offset.addr.i.i = alloca i32, align 4
  %obj.addr.i.i = alloca i64, align 8
  %map.i.i = alloca i64, align 8
  %retval.i88 = alloca i1, align 1
  %this.addr.i89 = alloca ptr, align 8
  %obj.i = alloca i64, align 8
  %this.addr.i86 = alloca ptr, align 8
  %this.addr.i.i.i = alloca ptr, align 8
  %location.addr.i.i.i = alloca ptr, align 8
  %this.addr.i9.i = alloca ptr, align 8
  %location.addr.i.i79 = alloca ptr, align 8
  %this.addr.i.i80 = alloca ptr, align 8
  %other.addr.i.i = alloca ptr, align 8
  %retval.i7.i = alloca %"class.v8::LocalBase.327", align 8
  %slot.addr.i8.i = alloca ptr, align 8
  %retval.i.i = alloca %"class.v8::Local.326", align 8
  %slot.addr.i.i = alloca ptr, align 8
  %ref.tmp.i.i = alloca %"class.v8::LocalBase.327", align 8
  %retval.i81 = alloca %"class.v8::Local.326", align 8
  %this.addr.i82 = alloca ptr, align 8
  %slot.addr.i78 = alloca ptr, align 8
  %slot.addr.i77 = alloca ptr, align 8
  %this.addr.i.i72 = alloca ptr, align 8
  %this.addr.i73 = alloca ptr, align 8
  %this.addr.i.i68 = alloca ptr, align 8
  %this.addr.i69 = alloca ptr, align 8
  %this.addr.i.i62 = alloca ptr, align 8
  %location.addr.i.i63 = alloca ptr, align 8
  %this.addr.i64 = alloca ptr, align 8
  %location.addr.i65 = alloca ptr, align 8
  %this.addr.i59 = alloca ptr, align 8
  %other.addr.i60 = alloca ptr, align 8
  %retval.i57 = alloca %"class.v8::LocalBase.327", align 8
  %slot.addr.i58 = alloca ptr, align 8
  %retval.i53 = alloca %"class.v8::Local.326", align 8
  %slot.addr.i54 = alloca ptr, align 8
  %ref.tmp.i55 = alloca %"class.v8::LocalBase.327", align 8
  %this.addr.i50 = alloca ptr, align 8
  %other.addr.i51 = alloca ptr, align 8
  %that.i = alloca %"class.v8::Local.365", align 8
  %this.addr.i49 = alloca ptr, align 8
  %this.addr.i.i = alloca ptr, align 8
  %location.addr.i.i = alloca ptr, align 8
  %this.addr.i47 = alloca ptr, align 8
  %location.addr.i = alloca ptr, align 8
  %this.addr.i45 = alloca ptr, align 8
  %other.addr.i = alloca ptr, align 8
  %retval.i43 = alloca %"class.v8::LocalBase.366", align 8
  %slot.addr.i44 = alloca ptr, align 8
  %retval.i40 = alloca %"class.v8::Local.365", align 8
  %slot.addr.i = alloca ptr, align 8
  %ref.tmp.i41 = alloca %"class.v8::LocalBase.366", align 8
  %isolate.addr.i39 = alloca ptr, align 8
  %index.addr.i = alloca i32, align 4
  %addr.i = alloca i64, align 8
  %isolate.addr.i38 = alloca ptr, align 8
  %retval.i36 = alloca %"class.v8::Local.365", align 8
  %isolate.addr.i = alloca ptr, align 8
  %slot.i = alloca ptr, align 8
  %this.addr.i34 = alloca ptr, align 8
  %this.addr.i31 = alloca ptr, align 8
  %this.addr.i28 = alloca ptr, align 8
  %retval.i22 = alloca %"class.v8::Local.326", align 8
  %this.addr.i23 = alloca ptr, align 8
  %i.addr.i = alloca i32, align 4
  %agg.tmp.i = alloca %"class.v8::Local.365", align 8
  %retval.i = alloca %"class.v8::Local.32", align 8
  %this.addr.i19 = alloca ptr, align 8
  %this.addr.i = alloca ptr, align 8
  %ref.tmp.i = alloca %"class.v8::Local.326", align 8
  %args.addr = alloca ptr, align 8
  %binding_data = alloca ptr, align 8
  %agg.tmp = alloca %"class.v8::Local.32", align 8
  %ref.tmp = alloca %"class.v8::Local.326", align 8
  store ptr %args, ptr %args.addr, align 8
  br label %do.body

do.body:                                          ; preds = %entry
  %0 = load ptr, ptr %args.addr, align 8
  store ptr %0, ptr %this.addr.i, align 8
  %this1.i = load ptr, ptr %this.addr.i, align 8
  store ptr %this1.i, ptr %this.addr.i82, align 8
  %this1.i83 = load ptr, ptr %this.addr.i82, align 8
  %1 = load ptr, ptr %this1.i83, align 8
  %arrayidx.i84 = getelementptr inbounds i64, ptr %1, i64 5
  store ptr %arrayidx.i84, ptr %slot.addr.i.i, align 8
  %2 = load ptr, ptr %slot.addr.i.i, align 8
  store ptr %2, ptr %slot.addr.i8.i, align 8
  %3 = load ptr, ptr %slot.addr.i8.i, align 8
  store ptr %retval.i7.i, ptr %this.addr.i9.i, align 8
  store ptr %3, ptr %location.addr.i.i79, align 8
  %this1.i10.i = load ptr, ptr %this.addr.i9.i, align 8
  %4 = load ptr, ptr %location.addr.i.i79, align 8
  store ptr %this1.i10.i, ptr %this.addr.i.i.i, align 8
  store ptr %4, ptr %location.addr.i.i.i, align 8
  %this1.i.i.i = load ptr, ptr %this.addr.i.i.i, align 8
  %5 = load ptr, ptr %location.addr.i.i.i, align 8
  store ptr %5, ptr %this1.i.i.i, align 8
  %6 = load ptr, ptr %retval.i7.i, align 8
  store ptr %6, ptr %ref.tmp.i.i, align 8
  store ptr %retval.i.i, ptr %this.addr.i.i80, align 8
  store ptr %ref.tmp.i.i, ptr %other.addr.i.i, align 8
  %this1.i.i85 = load ptr, ptr %this.addr.i.i80, align 8
  %7 = load ptr, ptr %other.addr.i.i, align 8
  call void @llvm.memcpy.p0.p0.i64(ptr align 8 %this1.i.i85, ptr align 8 %7, i64 8, i1 false)
  %8 = load ptr, ptr %retval.i.i, align 8
  store ptr %8, ptr %retval.i81, align 8
  %9 = load ptr, ptr %retval.i81, align 8
  store ptr %9, ptr %ref.tmp.i, align 8
  store ptr %ref.tmp.i, ptr %this.addr.i28, align 8
  %this1.i29 = load ptr, ptr %this.addr.i28, align 8
  store ptr %this1.i29, ptr %this.addr.i73, align 8
  %this1.i74 = load ptr, ptr %this.addr.i73, align 8
  store ptr %this1.i74, ptr %this.addr.i.i72, align 8
  %this1.i.i75 = load ptr, ptr %this.addr.i.i72, align 8
  %10 = load ptr, ptr %this1.i.i75, align 8
  store ptr %10, ptr %slot.addr.i77, align 8
  %11 = load ptr, ptr %slot.addr.i77, align 8
  store ptr %11, ptr %this.addr.i86, align 8
  %this1.i87 = load ptr, ptr %this.addr.i86, align 8
  store ptr %this1.i87, ptr %this.addr.i89, align 8
  %this1.i90 = load ptr, ptr %this.addr.i89, align 8
  store ptr %this1.i90, ptr %value.addr.i, align 8
  %12 = load ptr, ptr %value.addr.i, align 8
  %13 = load i64, ptr %12, align 8
  store i64 %13, ptr %obj.i, align 8
  %14 = load i64, ptr %obj.i, align 8
  store i64 %14, ptr %value.addr.i95, align 8
  %15 = load i64, ptr %value.addr.i95, align 8
  %and.i = and i64 %15, 3
  %cmp.i96 = icmp eq i64 %and.i, 1
  br i1 %cmp.i96, label %if.end.i93, label %if.then.i92

if.then.i92:                                      ; preds = %do.body
  store i1 false, ptr %retval.i88, align 1
  br label %_ZNK2v85Value16QuickIsUndefinedEv.exit

if.end.i93:                                       ; preds = %do.body
  %16 = load i64, ptr %obj.i, align 8
  store i64 %16, ptr %obj.addr.i.i, align 8
  %17 = load i64, ptr %obj.addr.i.i, align 8
  store i64 %17, ptr %heap_object_ptr.addr.i.i, align 8
  store i32 0, ptr %offset.addr.i.i, align 4
  %18 = load i64, ptr %heap_object_ptr.addr.i.i, align 8
  %19 = load i32, ptr %offset.addr.i.i, align 4
  store i64 %18, ptr %heap_object_ptr.addr.i12.i, align 8
  store i32 %19, ptr %offset.addr.i13.i, align 4
  %20 = load i64, ptr %heap_object_ptr.addr.i12.i, align 8
  %21 = load i32, ptr %offset.addr.i13.i, align 4
  %conv.i15.i = sext i32 %21 to i64
  %add.i16.i = add i64 %20, %conv.i15.i
  %sub.i17.i = sub i64 %add.i16.i, 1
  store i64 %sub.i17.i, ptr %addr.i14.i, align 8
  %22 = load i64, ptr %addr.i14.i, align 8
  %23 = inttoptr i64 %22 to ptr
  %24 = load i64, ptr %23, align 8
  store i64 %24, ptr %map.i.i, align 8
  %25 = load i64, ptr %map.i.i, align 8
  store i64 %25, ptr %heap_object_ptr.addr.i9.i, align 8
  store i32 12, ptr %offset.addr.i10.i, align 4
  %26 = load i64, ptr %heap_object_ptr.addr.i9.i, align 8
  %27 = load i32, ptr %offset.addr.i10.i, align 4
  %conv.i11.i = sext i32 %27 to i64
  %add.i.i = add i64 %26, %conv.i11.i
  %sub.i.i = sub i64 %add.i.i, 1
  store i64 %sub.i.i, ptr %addr.i.i, align 8
  %28 = load i64, ptr %addr.i.i, align 8
  %29 = inttoptr i64 %28 to ptr
  %30 = load i16, ptr %29, align 2
  %conv.i.i = zext i16 %30 to i32
  %cmp.i94 = icmp ne i32 %conv.i.i, 131
  br i1 %cmp.i94, label %if.then4.i, label %if.end5.i

if.then4.i:                                       ; preds = %if.end.i93
  store i1 false, ptr %retval.i88, align 1
  br label %_ZNK2v85Value16QuickIsUndefinedEv.exit

if.end5.i:                                        ; preds = %if.end.i93
  %31 = load i64, ptr %obj.i, align 8
  store i64 %31, ptr %obj.addr.i, align 8
  %32 = load i64, ptr %obj.addr.i, align 8
  store i64 %32, ptr %heap_object_ptr.addr.i, align 8
  store i32 40, ptr %offset.addr.i, align 4
  %33 = load i64, ptr %heap_object_ptr.addr.i, align 8
  %34 = load i32, ptr %offset.addr.i, align 4
  store i64 %33, ptr %heap_object_ptr.addr.i.i99, align 8
  store i32 %34, ptr %offset.addr.i.i100, align 4
  %35 = load i64, ptr %heap_object_ptr.addr.i.i99, align 8
  %36 = load i32, ptr %offset.addr.i.i100, align 4
  %conv.i.i102 = sext i32 %36 to i64
  %add.i.i103 = add i64 %35, %conv.i.i102
  %sub.i.i104 = sub i64 %add.i.i103, 1
  store i64 %sub.i.i104, ptr %addr.i.i101, align 8
  %37 = load i64, ptr %addr.i.i101, align 8
  %38 = inttoptr i64 %37 to ptr
  %39 = load i64, ptr %38, align 8
  store i64 %39, ptr %value.addr.i97, align 8
  %40 = load i64, ptr %value.addr.i97, align 8
  store i64 %40, ptr %value.addr.i105, align 8
  store i32 32, ptr %shift_bits.i, align 4
  %41 = load i64, ptr %value.addr.i105, align 8
  %42 = load i32, ptr %shift_bits.i, align 4
  %sh_prom.i = zext i32 %42 to i64
  %shr.i = ashr i64 %41, %sh_prom.i
  %conv.i106 = trunc i64 %shr.i to i32
  %cmp7.i = icmp eq i32 %conv.i106, 5
  store i1 %cmp7.i, ptr %retval.i88, align 1
  br label %_ZNK2v85Value16QuickIsUndefinedEv.exit

_ZNK2v85Value16QuickIsUndefinedEv.exit:           ; preds = %if.end5.i, %if.then4.i, %if.then.i92
  %43 = load i1, ptr %retval.i88, align 1
  %lnot.i = xor i1 %43, true
  %lnot = xor i1 %lnot.i, true
  %lnot1 = xor i1 %lnot, true
  %lnot2 = xor i1 %lnot1, true
  br i1 %lnot2, label %if.then, label %if.end

if.then:                                          ; preds = %_ZNK2v85Value16QuickIsUndefinedEv.exit
  br label %do.body3

do.body3:                                         ; preds = %if.then
  call void @_ZN4node6AssertERKNS_13AssertionInfoE(ptr noundef nonnull align 8 dereferenceable(24) @_ZZN4node11StatWatcher3NewERKN2v820FunctionCallbackInfoINS1_5ValueEEEE4args)
  call void @abort() #12
  unreachable

do.end:                                           ; No predecessors!
  br label %if.end

if.end:                                           ; preds = %do.end, %_ZNK2v85Value16QuickIsUndefinedEv.exit
  br label %do.end4

do.end4:                                          ; preds = %if.end
  %44 = load ptr, ptr %args.addr, align 8
  %call5 = call noundef ptr @_ZN4node5Realm14GetBindingDataINS_2fs11BindingDataEEEPT_RKN2v820FunctionCallbackInfoINS6_5ValueEEE(ptr noundef nonnull align 8 dereferenceable(20) %44)
  store ptr %call5, ptr %binding_data, align 8
  %call6 = call noalias noundef nonnull ptr @_Znwm(i64 noundef 208) #13
  %45 = load ptr, ptr %binding_data, align 8
  %46 = load ptr, ptr %args.addr, align 8
  store ptr %46, ptr %this.addr.i19, align 8
  %this1.i20 = load ptr, ptr %this.addr.i19, align 8
  %values_.i = getelementptr inbounds %"class.v8::FunctionCallbackInfo", ptr %this1.i20, i32 0, i32 1
  %47 = load ptr, ptr %values_.i, align 8
  %add.ptr.i = getelementptr inbounds i64, ptr %47, i64 -1
  store ptr %add.ptr.i, ptr %slot.addr.i110, align 8
  %48 = load ptr, ptr %slot.addr.i110, align 8
  store ptr %48, ptr %slot.addr.i118, align 8
  %49 = load ptr, ptr %slot.addr.i118, align 8
  store ptr %retval.i117, ptr %this.addr.i.i115, align 8
  store ptr %49, ptr %location.addr.i.i116, align 8
  %this1.i.i119 = load ptr, ptr %this.addr.i.i115, align 8
  %50 = load ptr, ptr %location.addr.i.i116, align 8
  store ptr %this1.i.i119, ptr %this.addr.i.i.i113, align 8
  store ptr %50, ptr %location.addr.i.i.i114, align 8
  %this1.i.i.i120 = load ptr, ptr %this.addr.i.i.i113, align 8
  %51 = load ptr, ptr %location.addr.i.i.i114, align 8
  store ptr %51, ptr %this1.i.i.i120, align 8
  %52 = load ptr, ptr %retval.i117, align 8
  store ptr %52, ptr %ref.tmp.i111, align 8
  store ptr %retval.i109, ptr %this.addr.i.i107, align 8
  store ptr %ref.tmp.i111, ptr %other.addr.i.i108, align 8
  %this1.i.i112 = load ptr, ptr %this.addr.i.i107, align 8
  %53 = load ptr, ptr %other.addr.i.i108, align 8
  call void @llvm.memcpy.p0.p0.i64(ptr align 8 %this1.i.i112, ptr align 8 %53, i64 8, i1 false)
  %54 = load ptr, ptr %retval.i109, align 8
  store ptr %54, ptr %retval.i, align 8
  %55 = load ptr, ptr %retval.i, align 8
  %coerce.dive = getelementptr inbounds %"class.v8::Local.32", ptr %agg.tmp, i32 0, i32 0
  %coerce.dive8 = getelementptr inbounds %"class.v8::LocalBase.33", ptr %coerce.dive, i32 0, i32 0
  %coerce.dive9 = getelementptr inbounds %"class.v8::IndirectHandleBase", ptr %coerce.dive8, i32 0, i32 0
  store ptr %55, ptr %coerce.dive9, align 8
  %56 = load ptr, ptr %args.addr, align 8
  store ptr %56, ptr %this.addr.i23, align 8
  store i32 0, ptr %i.addr.i, align 4
  %this1.i24 = load ptr, ptr %this.addr.i23, align 8
  %57 = load i32, ptr %i.addr.i, align 4
  %cmp.i = icmp slt i32 %57, 0
  br i1 %cmp.i, label %if.then.i, label %lor.lhs.false.i

lor.lhs.false.i:                                  ; preds = %do.end4
  %length_.i = getelementptr inbounds %"class.v8::FunctionCallbackInfo", ptr %this1.i24, i32 0, i32 2
  %58 = load i32, ptr %length_.i, align 8
  %59 = load i32, ptr %i.addr.i, align 4
  %cmp2.i = icmp sle i32 %58, %59
  br i1 %cmp2.i, label %if.then.i, label %if.end.i

if.then.i:                                        ; preds = %lor.lhs.false.i, %do.end4
  store ptr %this1.i24, ptr %this.addr.i34, align 8
  %this1.i35 = load ptr, ptr %this.addr.i34, align 8
  %60 = load ptr, ptr %this1.i35, align 8
  %arrayidx.i = getelementptr inbounds i64, ptr %60, i64 1
  %61 = load ptr, ptr %arrayidx.i, align 8
  store ptr %61, ptr %isolate.addr.i, align 8
  %62 = load ptr, ptr %isolate.addr.i, align 8
  store ptr %62, ptr %isolate.addr.i38, align 8
  %63 = load ptr, ptr %isolate.addr.i, align 8
  store ptr %63, ptr %isolate.addr.i39, align 8
  store i32 4, ptr %index.addr.i, align 4
  %64 = load ptr, ptr %isolate.addr.i39, align 8
  %65 = ptrtoint ptr %64 to i64
  %add.i = add i64 %65, 576
  %66 = load i32, ptr %index.addr.i, align 4
  %mul.i = mul nsw i32 %66, 8
  %conv.i = sext i32 %mul.i to i64
  %add1.i = add i64 %add.i, %conv.i
  store i64 %add1.i, ptr %addr.i, align 8
  %67 = load i64, ptr %addr.i, align 8
  %68 = inttoptr i64 %67 to ptr
  store ptr %68, ptr %slot.i, align 8
  %69 = load ptr, ptr %slot.i, align 8
  store ptr %69, ptr %slot.addr.i, align 8
  %70 = load ptr, ptr %slot.addr.i, align 8
  store ptr %70, ptr %slot.addr.i44, align 8
  %71 = load ptr, ptr %slot.addr.i44, align 8
  store ptr %retval.i43, ptr %this.addr.i47, align 8
  store ptr %71, ptr %location.addr.i, align 8
  %this1.i48 = load ptr, ptr %this.addr.i47, align 8
  %72 = load ptr, ptr %location.addr.i, align 8
  store ptr %this1.i48, ptr %this.addr.i.i, align 8
  store ptr %72, ptr %location.addr.i.i, align 8
  %this1.i.i = load ptr, ptr %this.addr.i.i, align 8
  %73 = load ptr, ptr %location.addr.i.i, align 8
  store ptr %73, ptr %this1.i.i, align 8
  %74 = load ptr, ptr %retval.i43, align 8
  store ptr %74, ptr %ref.tmp.i41, align 8
  store ptr %retval.i40, ptr %this.addr.i45, align 8
  store ptr %ref.tmp.i41, ptr %other.addr.i, align 8
  %this1.i46 = load ptr, ptr %this.addr.i45, align 8
  %75 = load ptr, ptr %other.addr.i, align 8
  call void @llvm.memcpy.p0.p0.i64(ptr align 8 %this1.i46, ptr align 8 %75, i64 8, i1 false)
  %76 = load ptr, ptr %retval.i40, align 8
  store ptr %76, ptr %retval.i36, align 8
  %77 = load ptr, ptr %retval.i36, align 8
  store ptr %77, ptr %agg.tmp.i, align 8
  %78 = load ptr, ptr %agg.tmp.i, align 8
  store ptr %78, ptr %that.i, align 8
  store ptr %retval.i22, ptr %this.addr.i49, align 8
  %this3.i = load ptr, ptr %this.addr.i49, align 8
  store ptr %this3.i, ptr %this.addr.i50, align 8
  store ptr %that.i, ptr %other.addr.i51, align 8
  %this1.i52 = load ptr, ptr %this.addr.i50, align 8
  %79 = load ptr, ptr %other.addr.i51, align 8
  call void @llvm.memcpy.p0.p0.i64(ptr align 8 %this1.i52, ptr align 8 %79, i64 8, i1 false)
  br label %_ZNK2v820FunctionCallbackInfoINS_5ValueEEixEi.exit

if.end.i:                                         ; preds = %lor.lhs.false.i
  %values_.i25 = getelementptr inbounds %"class.v8::FunctionCallbackInfo", ptr %this1.i24, i32 0, i32 1
  %80 = load ptr, ptr %values_.i25, align 8
  %81 = load i32, ptr %i.addr.i, align 4
  %idx.ext.i = sext i32 %81 to i64
  %add.ptr.i26 = getelementptr inbounds i64, ptr %80, i64 %idx.ext.i
  store ptr %add.ptr.i26, ptr %slot.addr.i54, align 8
  %82 = load ptr, ptr %slot.addr.i54, align 8
  store ptr %82, ptr %slot.addr.i58, align 8
  %83 = load ptr, ptr %slot.addr.i58, align 8
  store ptr %retval.i57, ptr %this.addr.i64, align 8
  store ptr %83, ptr %location.addr.i65, align 8
  %this1.i66 = load ptr, ptr %this.addr.i64, align 8
  %84 = load ptr, ptr %location.addr.i65, align 8
  store ptr %this1.i66, ptr %this.addr.i.i62, align 8
  store ptr %84, ptr %location.addr.i.i63, align 8
  %this1.i.i67 = load ptr, ptr %this.addr.i.i62, align 8
  %85 = load ptr, ptr %location.addr.i.i63, align 8
  store ptr %85, ptr %this1.i.i67, align 8
  %86 = load ptr, ptr %retval.i57, align 8
  store ptr %86, ptr %ref.tmp.i55, align 8
  store ptr %retval.i53, ptr %this.addr.i59, align 8
  store ptr %ref.tmp.i55, ptr %other.addr.i60, align 8
  %this1.i61 = load ptr, ptr %this.addr.i59, align 8
  %87 = load ptr, ptr %other.addr.i60, align 8
  call void @llvm.memcpy.p0.p0.i64(ptr align 8 %this1.i61, ptr align 8 %87, i64 8, i1 false)
  %88 = load ptr, ptr %retval.i53, align 8
  store ptr %88, ptr %retval.i22, align 8
  br label %_ZNK2v820FunctionCallbackInfoINS_5ValueEEixEi.exit

_ZNK2v820FunctionCallbackInfoINS_5ValueEEixEi.exit: ; preds = %if.end.i, %if.then.i
  %89 = load ptr, ptr %retval.i22, align 8
  %coerce.dive11 = getelementptr inbounds %"class.v8::Local.326", ptr %ref.tmp, i32 0, i32 0
  %coerce.dive12 = getelementptr inbounds %"class.v8::LocalBase.327", ptr %coerce.dive11, i32 0, i32 0
  %coerce.dive13 = getelementptr inbounds %"class.v8::IndirectHandleBase", ptr %coerce.dive12, i32 0, i32 0
  store ptr %89, ptr %coerce.dive13, align 8
  store ptr %ref.tmp, ptr %this.addr.i31, align 8
  %this1.i32 = load ptr, ptr %this.addr.i31, align 8
  store ptr %this1.i32, ptr %this.addr.i69, align 8
  %this1.i70 = load ptr, ptr %this.addr.i69, align 8
  store ptr %this1.i70, ptr %this.addr.i.i68, align 8
  %this1.i.i71 = load ptr, ptr %this.addr.i.i68, align 8
  %90 = load ptr, ptr %this1.i.i71, align 8
  store ptr %90, ptr %slot.addr.i78, align 8
  %91 = load ptr, ptr %slot.addr.i78, align 8
  %call15 = call noundef zeroext i1 @_ZNK2v85Value6IsTrueEv(ptr noundef nonnull align 1 dereferenceable(1) %91)
  %coerce.dive16 = getelementptr inbounds %"class.v8::Local.32", ptr %agg.tmp, i32 0, i32 0
  %coerce.dive17 = getelementptr inbounds %"class.v8::LocalBase.33", ptr %coerce.dive16, i32 0, i32 0
  %coerce.dive18 = getelementptr inbounds %"class.v8::IndirectHandleBase", ptr %coerce.dive17, i32 0, i32 0
  %92 = load ptr, ptr %coerce.dive18, align 8
  call void @_ZN4node11StatWatcherC1EPNS_2fs11BindingDataEN2v85LocalINS4_6ObjectEEEb(ptr noundef nonnull align 8 dereferenceable(208) %call6, ptr noundef %45, ptr %92, i1 noundef zeroext %call15)
  ret void
}