; Function Attrs: mustprogress nounwind uwtable
define dso_local void @_ZN4node11StatWatcher3NewERKN2v820FunctionCallbackInfoINS1_5ValueEEE(ptr noundef nonnull align 8 dereferenceable(20) %args) #3 align 2 {
entry:
  %0 = load ptr, ptr %args, align 8
  %arrayidx.i84 = getelementptr inbounds i8, ptr %0, i64 40
  %1 = load i64, ptr %arrayidx.i84, align 8
  %and.i = and i64 %1, 3
  %cmp.i96 = icmp eq i64 %and.i, 1
  br i1 %cmp.i96, label %if.end.i93, label %do.end4

if.end.i93:                                       ; preds = %entry
  %sub.i17.i = add nsw i64 %1, -1
  %2 = inttoptr i64 %sub.i17.i to ptr
  %3 = load i64, ptr %2, align 8
  %sub.i.i = add i64 %3, 11
  %4 = inttoptr i64 %sub.i.i to ptr
  %5 = load i16, ptr %4, align 2
  %cmp.i94.not = icmp eq i16 %5, 131
  br i1 %cmp.i94.not, label %if.end5.i, label %do.end4

if.end5.i:                                        ; preds = %if.end.i93
  %sub.i.i104 = add i64 %1, 39
  %6 = inttoptr i64 %sub.i.i104 to ptr
  %7 = load i64, ptr %6, align 8
  %shr.i.mask = and i64 %7, -4294967296
  %cmp7.i = icmp eq i64 %shr.i.mask, 21474836480
  br i1 %cmp7.i, label %do.body3, label %do.end4

do.body3:                                         ; preds = %if.end5.i
  tail call void @_ZN4node6AssertERKNS_13AssertionInfoE(ptr noundef nonnull align 8 dereferenceable(24) @_ZZN4node11StatWatcher3NewERKN2v820FunctionCallbackInfoINS1_5ValueEEEE4args) #14
  tail call void @abort() #15
  unreachable

do.end4:                                          ; preds = %entry, %if.end.i93, %if.end5.i
  %call5 = tail call noundef ptr @_ZN4node5Realm14GetBindingDataINS_2fs11BindingDataEEEPT_RKN2v820FunctionCallbackInfoINS6_5ValueEEE(ptr noundef nonnull align 8 dereferenceable(20) %args)
  %call6 = tail call noalias noundef nonnull dereferenceable(208) ptr @_Znwm(i64 noundef 208) #16
  %values_.i = getelementptr inbounds i8, ptr %args, i64 8
  %8 = load ptr, ptr %values_.i, align 8
  %length_.i = getelementptr inbounds i8, ptr %args, i64 16
  %9 = load i32, ptr %length_.i, align 8
  %cmp2.i = icmp slt i32 %9, 1
  br i1 %cmp2.i, label %if.then.i, label %_ZNK2v820FunctionCallbackInfoINS_5ValueEEixEi.exit

if.then.i:                                        ; preds = %do.end4
  %10 = load ptr, ptr %args, align 8
  %arrayidx.i = getelementptr inbounds i8, ptr %10, i64 8
  %11 = load ptr, ptr %arrayidx.i, align 8
  %12 = ptrtoint ptr %11 to i64
  %add1.i = add i64 %12, 608
  %13 = inttoptr i64 %add1.i to ptr
  br label %_ZNK2v820FunctionCallbackInfoINS_5ValueEEixEi.exit

_ZNK2v820FunctionCallbackInfoINS_5ValueEEixEi.exit: ; preds = %do.end4, %if.then.i
  %retval.i22.sroa.0.0 = phi ptr [ %13, %if.then.i ], [ %8, %do.end4 ]
  %add.ptr.i = getelementptr inbounds i8, ptr %8, i64 -8
  %call15 = tail call noundef zeroext i1 @_ZNK2v85Value6IsTrueEv(ptr noundef nonnull align 1 dereferenceable(1) %retval.i22.sroa.0.0) #14
  tail call void @_ZN4node11StatWatcherC2EPNS_2fs11BindingDataEN2v85LocalINS4_6ObjectEEEb(ptr noundef nonnull align 8 dereferenceable(208) %call6, ptr noundef %call5, ptr nonnull %add.ptr.i, i1 noundef zeroext %call15)
  ret void
}